target datalayout = "e-m:e-p270:32:32-p271:32:32-p272:64:64-i64:64-i128:128-f80:128-n8:16:32:64-S128"
target triple = "x86_64-pc-linux-gnu"

%struct.timespec = type { i64, i64 }
%struct.uv_loop_s = type { ptr, i32, [2 x ptr], %union.anon.1, ptr, i32, i64, i32, [2 x ptr], [2 x ptr], ptr, i32, i32, [2 x ptr], %union.pthread_mutex_t, %struct.uv_async_s, %union.pthread_rwlock_t, ptr, [2 x ptr], [2 x ptr], [2 x ptr], [2 x ptr], [2 x ptr], ptr, %struct.uv__io_s, i32, %struct.anon, i64, i64, [2 x i32], %struct.uv__io_s, %struct.uv_signal_s, i32, %struct.uv__io_s, ptr, i32 }
%union.anon.1 = type { ptr }
%union.pthread_mutex_t = type { %struct.__pthread_mutex_s }
%struct.__pthread_mutex_s = type { i32, i32, i32, i32, i32, i16, i16, %struct.__pthread_internal_list }
%struct.__pthread_internal_list = type { ptr, ptr }
%struct.uv_async_s = type { ptr, ptr, i32, ptr, [2 x ptr], %union.anon.2, ptr, i32, ptr, [2 x ptr], i32 }
%union.anon.2 = type { [4 x ptr] }
%union.pthread_rwlock_t = type { %struct.__pthread_rwlock_arch_t }
%struct.__pthread_rwlock_arch_t = type { i32, i32, i32, i32, i32, i32, i32, i32, i8, [7 x i8], i64, i32 }
%struct.anon = type { ptr, i32 }
%struct.uv_signal_s = type { ptr, ptr, i32, ptr, [2 x ptr], %union.anon.3, ptr, i32, ptr, i32, %struct.anon.4, i32, i32 }
%union.anon.3 = type { [4 x ptr] }
%struct.anon.4 = type { ptr, ptr, ptr, i32 }
%struct.uv__io_s = type { ptr, [2 x ptr], [2 x ptr], i32, i32, i32 }
%struct.uv_stream_s = type { ptr, ptr, i32, ptr, [2 x ptr], %union.anon, ptr, i32, i64, ptr, ptr, ptr, ptr, %struct.uv__io_s, [2 x ptr], [2 x ptr], ptr, i32, i32, ptr }
%union.anon = type { [4 x ptr] }

@.str.1 = private unnamed_addr constant [2 x i8] c"/\00", align 1
@__const.uv__server_io.timeout = private unnamed_addr constant %struct.timespec { i64 0, i64 1 }, align 8

; Function Attrs: nounwind uwtable
define internal i32 @uv__emfile_trick(ptr noundef %0, i32 noundef %1) #0 {
  %3 = alloca i32, align 4
  %4 = alloca ptr, align 8
  %5 = alloca i32, align 4
  %6 = alloca i32, align 4
  %7 = alloca i32, align 4
  store ptr %0, ptr %4, align 8
  store i32 %1, ptr %5, align 4
  %8 = load ptr, ptr %4, align 8
  %9 = getelementptr inbounds %struct.uv_loop_s, ptr %8, i32 0, i32 32
  %10 = load i32, ptr %9, align 8
  %11 = icmp eq i32 %10, -1
  br i1 %11, label %12, label %13

12:                                               ; preds = %2
  store i32 -24, ptr %3, align 4
  br label %47

13:                                               ; preds = %2
  %14 = load ptr, ptr %4, align 8
  %15 = getelementptr inbounds %struct.uv_loop_s, ptr %14, i32 0, i32 32
  %16 = load i32, ptr %15, align 8
  %17 = call i32 @uv__close(i32 noundef %16)
  %18 = load ptr, ptr %4, align 8
  %19 = getelementptr inbounds %struct.uv_loop_s, ptr %18, i32 0, i32 32
  store i32 -1, ptr %19, align 8
  br label %20

20:                                               ; preds = %35, %13
  %21 = load i32, ptr %5, align 4
  %22 = call i32 @uv__accept(i32 noundef %21)
  store i32 %22, ptr %6, align 4
  %23 = load i32, ptr %6, align 4
  %24 = icmp sge i32 %23, 0
  br i1 %24, label %25, label %28

25:                                               ; preds = %20
  %26 = load i32, ptr %6, align 4
  %27 = call i32 @uv__close(i32 noundef %26)
  br label %28

28:                                               ; preds = %25, %20
  br label %29

29:                                               ; preds = %28
  %30 = load i32, ptr %6, align 4
  %31 = icmp sge i32 %30, 0
  br i1 %31, label %35, label %32

32:                                               ; preds = %29
  %33 = load i32, ptr %6, align 4
  %34 = icmp eq i32 %33, -4
  br label %35

35:                                               ; preds = %32, %29
  %36 = phi i1 [ true, %29 ], [ %34, %32 ]
  br i1 %36, label %20, label %37, !llvm.loop !9

37:                                               ; preds = %35
  %38 = call i32 @uv__open_cloexec(ptr noundef @.str.1, i32 noundef 0)
  store i32 %38, ptr %7, align 4
  %39 = load i32, ptr %7, align 4
  %40 = icmp sge i32 %39, 0
  br i1 %40, label %41, label %45

41:                                               ; preds = %37
  %42 = load i32, ptr %7, align 4
  %43 = load ptr, ptr %4, align 8
  %44 = getelementptr inbounds %struct.uv_loop_s, ptr %43, i32 0, i32 32
  store i32 %42, ptr %44, align 8
  br label %45

45:                                               ; preds = %41, %37
  %46 = load i32, ptr %6, align 4
  store i32 %46, ptr %3, align 4
  br label %47

47:                                               ; preds = %45, %12
  %48 = load i32, ptr %3, align 4
  ret i32 %48
}

; Function Attrs: nounwind uwtable
define dso_local void @uv__server_io(ptr noundef %0, ptr noundef %1, i32 noundef %2) #0 {
  %4 = alloca ptr, align 8
  %5 = alloca ptr, align 8
  %6 = alloca i32, align 4
  %7 = alloca ptr, align 8
  %8 = alloca i32, align 4
  %9 = alloca %struct.timespec, align 8
  store ptr %0, ptr %4, align 8
  store ptr %1, ptr %5, align 8
  store i32 %2, ptr %6, align 4
  %10 = load ptr, ptr %5, align 8
  %11 = getelementptr inbounds i8, ptr %10, i64 -136
  store ptr %11, ptr %7, align 8
  %12 = load ptr, ptr %7, align 8
  %13 = getelementptr inbounds %struct.uv_stream_s, ptr %12, i32 0, i32 1
  %14 = load ptr, ptr %13, align 8
  %15 = load ptr, ptr %7, align 8
  %16 = getelementptr inbounds %struct.uv_stream_s, ptr %15, i32 0, i32 13
  call void @uv__io_start(ptr noundef %14, ptr noundef %16, i32 noundef 1)
  br label %17

17:                                               ; preds = %97, %62, %41, %3
  %18 = load ptr, ptr %7, align 8
  %19 = getelementptr inbounds %struct.uv_stream_s, ptr %18, i32 0, i32 13
  %20 = getelementptr inbounds %struct.uv__io_s, ptr %19, i32 0, i32 5
  %21 = load i32, ptr %20, align 8
  %22 = icmp ne i32 %21, -1
  br i1 %22, label %23, label %98

23:                                               ; preds = %17
  %24 = load ptr, ptr %7, align 8
  %25 = getelementptr inbounds %struct.uv_stream_s, ptr %24, i32 0, i32 13
  %26 = getelementptr inbounds %struct.uv__io_s, ptr %25, i32 0, i32 5
  %27 = load i32, ptr %26, align 8
  %28 = call i32 @uv__accept(i32 noundef %27)
  store i32 %28, ptr %8, align 4
  %29 = load i32, ptr %8, align 4
  %30 = icmp slt i32 %29, 0
  br i1 %30, label %31, label %68

31:                                               ; preds = %23
  %32 = load i32, ptr %8, align 4
  %33 = icmp eq i32 %32, -11
  br i1 %33, label %37, label %34

34:                                               ; preds = %31
  %35 = load i32, ptr %8, align 4
  %36 = icmp eq i32 %35, -11
  br i1 %36, label %37, label %38

37:                                               ; preds = %34, %31
  br label %98

38:                                               ; preds = %34
  %39 = load i32, ptr %8, align 4
  %40 = icmp eq i32 %39, -103
  br i1 %40, label %41, label %42

41:                                               ; preds = %38
  br label %17, !llvm.loop !8

42:                                               ; preds = %38
  %43 = load i32, ptr %8, align 4
  %44 = icmp eq i32 %43, -24
  br i1 %44, label %48, label %45

45:                                               ; preds = %42
  %46 = load i32, ptr %8, align 4
  %47 = icmp eq i32 %46, -23
  br i1 %47, label %48, label %62

48:                                               ; preds = %45, %42
  %49 = load ptr, ptr %4, align 8
  %50 = load ptr, ptr %7, align 8
  %51 = getelementptr inbounds %struct.uv_stream_s, ptr %50, i32 0, i32 13
  %52 = getelementptr inbounds %struct.uv__io_s, ptr %51, i32 0, i32 5
  %53 = load i32, ptr %52, align 8
  %54 = call i32 @uv__emfile_trick(ptr noundef %49, i32 noundef %53)
  store i32 %54, ptr %8, align 4
  %55 = load i32, ptr %8, align 4
  %56 = icmp eq i32 %55, -11
  br i1 %56, label %60, label %57

57:                                               ; preds = %48
  %58 = load i32, ptr %8, align 4
  %59 = icmp eq i32 %58, -11
  br i1 %59, label %60, label %61

60:                                               ; preds = %57, %48
  br label %98

61:                                               ; preds = %57
  br label %62

62:                                               ; preds = %61, %45
  %63 = load ptr, ptr %7, align 8
  %64 = getelementptr inbounds %struct.uv_stream_s, ptr %63, i32 0, i32 16
  %65 = load ptr, ptr %64, align 8
  %66 = load ptr, ptr %7, align 8
  %67 = load i32, ptr %8, align 4
  call void %65(ptr noundef %66, i32 noundef %67)
  br label %17, !llvm.loop !8

68:                                               ; preds = %23
  %69 = load i32, ptr %8, align 4
  %70 = load ptr, ptr %7, align 8
  %71 = getelementptr inbounds %struct.uv_stream_s, ptr %70, i32 0, i32 18
  store i32 %69, ptr %71, align 4
  %72 = load ptr, ptr %7, align 8
  %73 = getelementptr inbounds %struct.uv_stream_s, ptr %72, i32 0, i32 16
  %74 = load ptr, ptr %73, align 8
  %75 = load ptr, ptr %7, align 8
  call void %74(ptr noundef %75, i32 noundef 0)
  %76 = load ptr, ptr %7, align 8
  %77 = getelementptr inbounds %struct.uv_stream_s, ptr %76, i32 0, i32 18
  %78 = load i32, ptr %77, align 4
  %79 = icmp ne i32 %78, -1
  br i1 %79, label %80, label %84

80:                                               ; preds = %68
  %81 = load ptr, ptr %4, align 8
  %82 = load ptr, ptr %7, align 8
  %83 = getelementptr inbounds %struct.uv_stream_s, ptr %82, i32 0, i32 13
  call void @uv__io_stop(ptr noundef %81, ptr noundef %83, i32 noundef 1)
  br label %98

84:                                               ; preds = %68
  %85 = load ptr, ptr %7, align 8
  %86 = getelementptr inbounds %struct.uv_stream_s, ptr %85, i32 0, i32 2
  %87 = load i32, ptr %86, align 8
  %88 = icmp eq i32 %87, 12
  br i1 %88, label %89, label %97

89:                                               ; preds = %84
  %90 = load ptr, ptr %7, align 8
  %91 = getelementptr inbounds %struct.uv_stream_s, ptr %90, i32 0, i32 7
  %92 = load i32, ptr %91, align 8
  %93 = and i32 %92, 67108864
  %94 = icmp ne i32 %93, 0
  br i1 %94, label %95, label %97

95:                                               ; preds = %89
  call void @llvm.memcpy.p0.p0.i64(ptr align 8 %9, ptr align 8 @__const.uv__server_io.timeout, i64 16, i1 false)
  %96 = call i32 @nanosleep(ptr noundef %9, ptr noundef null)
  br label %97

97:                                               ; preds = %95, %89, %84
  br label %17, !llvm.loop !8

98:                                               ; preds = %80, %60, %37, %17
  ret void
}