; Function Attrs: nounwind uwtable
define dso_local void @uv__server_io(ptr noundef %0, ptr noundef %1, i32 noundef %2) local_unnamed_addr #0 {
  %4 = alloca %struct.timespec, align 8
  %5 = getelementptr inbounds i8, ptr %1, i64 -136
  %6 = getelementptr inbounds i8, ptr %1, i64 -128
  %7 = load ptr, ptr %6, align 8
  tail call void @uv__io_start(ptr noundef %7, ptr noundef %1, i32 noundef 1) #12
  %8 = getelementptr inbounds nuw i8, ptr %1, i64 48
  %9 = load i32, ptr %8, align 8
  %.not37 = icmp eq i32 %9, -1
  br i1 %.not37, label %.loopexit, label %.lr.ph

.lr.ph:                                           ; preds = %3
  %10 = getelementptr inbounds nuw i8, ptr %1, i64 100
  %11 = getelementptr inbounds nuw i8, ptr %1, i64 88
  %12 = getelementptr inbounds i8, ptr %1, i64 -120
  %13 = getelementptr inbounds i8, ptr %1, i64 -48
  %14 = getelementptr inbounds nuw i8, ptr %0, i64 768
  br label %15

15:                                               ; preds = %.lr.ph, %.backedge
  %16 = phi i32 [ %9, %.lr.ph ], [ %42, %.backedge ]
  %17 = call i32 @uv__accept(i32 noundef %16) #12
  %18 = icmp slt i32 %17, 0
  br i1 %18, label %19, label %43

19:                                               ; preds = %15
  switch i32 %17, label %20 [
    i32 -11, label %.loopexit
    i32 -103, label %.backedge
  ]

20:                                               ; preds = %19
  %21 = and i32 %17, -2
  %or.cond3 = icmp eq i32 %21, -24
  br i1 %or.cond3, label %22, label %uv__emfile_trick.exit.thread

22:                                               ; preds = %20
  %23 = load i32, ptr %8, align 8
  %24 = load i32, ptr %14, align 8
  %25 = icmp eq i32 %24, -1
  br i1 %25, label %uv__emfile_trick.exit.thread, label %26

26:                                               ; preds = %22
  %27 = call i32 @uv__close(i32 noundef %24) #12
  store i32 -1, ptr %14, align 8
  br label %28

28:                                               ; preds = %33, %26
  %29 = call i32 @uv__accept(i32 noundef %23) #12
  %30 = icmp sgt i32 %29, -1
  br i1 %30, label %31, label %33

31:                                               ; preds = %28
  %32 = call i32 @uv__close(i32 noundef %29) #12
  br label %33

33:                                               ; preds = %31, %28
  %34 = icmp eq i32 %29, -4
  %35 = or i1 %30, %34
  br i1 %35, label %28, label %36, !llvm.loop !15

36:                                               ; preds = %33
  %37 = call i32 @uv__open_cloexec(ptr noundef nonnull @.str.1, i32 noundef 0) #12
  %38 = icmp sgt i32 %37, -1
  br i1 %38, label %39, label %uv__emfile_trick.exit

39:                                               ; preds = %36
  store i32 %37, ptr %14, align 8
  br label %uv__emfile_trick.exit

uv__emfile_trick.exit:                            ; preds = %36, %39
  %40 = icmp eq i32 %29, -11
  br i1 %40, label %.loopexit, label %uv__emfile_trick.exit.thread

uv__emfile_trick.exit.thread:                     ; preds = %22, %uv__emfile_trick.exit, %20
  %.0 = phi i32 [ %29, %uv__emfile_trick.exit ], [ %17, %20 ], [ -24, %22 ]
  %41 = load ptr, ptr %11, align 8
  call void %41(ptr noundef nonnull %5, i32 noundef %.0) #12
  br label %.backedge

.backedge:                                        ; preds = %47, %50, %53, %uv__emfile_trick.exit.thread, %19
  %42 = load i32, ptr %8, align 8
  %.not = icmp eq i32 %42, -1
  br i1 %.not, label %.loopexit, label %15, !llvm.loop !16

43:                                               ; preds = %15
  store i32 %17, ptr %10, align 4
  %44 = load ptr, ptr %11, align 8
  call void %44(ptr noundef nonnull %5, i32 noundef 0) #12
  %45 = load i32, ptr %10, align 4
  %.not34 = icmp eq i32 %45, -1
  br i1 %.not34, label %47, label %46

46:                                               ; preds = %43
  call void @uv__io_stop(ptr noundef %0, ptr noundef nonnull %1, i32 noundef 1) #12
  br label %.loopexit

47:                                               ; preds = %43
  %48 = load i32, ptr %12, align 8
  %49 = icmp eq i32 %48, 12
  br i1 %49, label %50, label %.backedge

50:                                               ; preds = %47
  %51 = load i32, ptr %13, align 8
  %52 = and i32 %51, 67108864
  %.not35 = icmp eq i32 %52, 0
  br i1 %.not35, label %.backedge, label %53

53:                                               ; preds = %50
  call void @llvm.memcpy.p0.p0.i64(ptr noundef nonnull align 8 dereferenceable(16) %4, ptr noundef nonnull align 8 dereferenceable(16) @__const.uv__server_io.timeout, i64 16, i1 false)
  %54 = call i32 @nanosleep(ptr noundef nonnull %4, ptr noundef null) #12
  br label %.backedge

.loopexit:                                        ; preds = %.backedge, %uv__emfile_trick.exit, %19, %3, %46
  ret void
}